target datalayout = "e-m:e-p270:32:32-p271:32:32-p272:64:64-i64:64-i128:128-f80:128-n8:16:32:64-S128"
target triple = "x86_64-unknown-linux-gnu"

%struct.VirtIODevice = type { %struct.DeviceState, ptr, i8, i8, i16, i64, i64, i64, i64, ptr, i16, i32, i32, ptr, %struct.MemoryListener, i16, i8, i8, i8, i8, i8, i8, i8, i8, i8, ptr, ptr, i8, i8, ptr, ptr, %union.anon.1, %struct.EventNotifier, i8 }
%struct.DeviceState = type { %struct.Object, ptr, ptr, i8, i8, i64, ptr, i32, i8, ptr, %struct.NamedGPIOListHead, %struct.NamedClockListHead, %struct.BusStateHead, i32, i32, i32, %struct.ResettableState, ptr, %struct.MemReentrancyGuard }
%struct.Object = type { ptr, ptr, ptr, i32, ptr }
%struct.NamedGPIOListHead = type { ptr }
%struct.NamedClockListHead = type { ptr }
%struct.BusStateHead = type { ptr }
%struct.ResettableState = type { i32, i8, i8 }
%struct.MemReentrancyGuard = type { i8 }
%struct.MemoryListener = type { ptr, ptr, ptr, ptr, ptr, ptr, ptr, ptr, ptr, ptr, ptr, ptr, ptr, ptr, ptr, ptr, ptr, i32, ptr, ptr, %union.anon, %union.anon.0 }
%union.anon = type { %struct.QTailQLink }
%struct.QTailQLink = type { ptr, ptr }
%union.anon.0 = type { %struct.QTailQLink }
%union.anon.1 = type { %struct.QTailQLink }
%struct.EventNotifier = type { i32, i32, i8 }
%struct.VirtQueue = type { %struct.VRing, ptr, i16, i8, i16, i8, i16, i8, i16, i8, i8, i16, i32, i16, ptr, ptr, %struct.EventNotifier, %struct.EventNotifier, i8, %struct.anon }
%struct.VRing = type { i32, i32, i32, i64, i64, i64, ptr }
%struct.anon = type { ptr, ptr }
%struct.timeval = type { i64, i64 }

@trace_events_enabled_count = external global i32, align 4
@message_with_timestamp = external global i8, align 1
@_TRACE_VIRTIO_QUEUE_NOTIFY_DSTATE = external global i16, align 2
@.str.100 = private unnamed_addr constant [53 x i8] c"%d@%zu.%06zu:virtio_queue_notify vdev %p n %d vq %p\0A\00", align 1
@.str.101 = private unnamed_addr constant [40 x i8] c"virtio_queue_notify vdev %p n %d vq %p\0A\00", align 1
@qemu_loglevel = external global i32, align 4

; Function Attrs: nounwind sspstrong uwtable
define internal zeroext i1 @qemu_loglevel_mask(i32 noundef %mask) #0 {
entry:
  %mask.addr = alloca i32, align 4
  store i32 %mask, ptr %mask.addr, align 4
  %0 = load i32, ptr @qemu_loglevel, align 4
  %1 = load i32, ptr %mask.addr, align 4
  %and = and i32 %0, %1
  %cmp = icmp ne i32 %and, 0
  ret i1 %cmp
}

; Function Attrs: nounwind sspstrong uwtable
define internal void @_nocheck__trace_virtio_queue_notify(ptr noundef %vdev, i32 noundef %n, ptr noundef %vq) #0 {
entry:
  %vdev.addr = alloca ptr, align 8
  %n.addr = alloca i32, align 4
  %vq.addr = alloca ptr, align 8
  %_now = alloca %struct.timeval, align 8
  store ptr %vdev, ptr %vdev.addr, align 8
  store i32 %n, ptr %n.addr, align 4
  store ptr %vq, ptr %vq.addr, align 8
  %0 = load i32, ptr @trace_events_enabled_count, align 4
  %tobool = icmp ne i32 %0, 0
  %lnot = xor i1 %tobool, true
  %lnot1 = xor i1 %lnot, true
  %lnot.ext = zext i1 %lnot1 to i32
  %conv = sext i32 %lnot.ext to i64
  %tobool2 = icmp ne i64 %conv, 0
  br i1 %tobool2, label %land.lhs.true, label %if.end11

land.lhs.true:                                    ; preds = %entry
  %1 = load i16, ptr @_TRACE_VIRTIO_QUEUE_NOTIFY_DSTATE, align 2
  %conv3 = zext i16 %1 to i32
  %tobool4 = icmp ne i32 %conv3, 0
  br i1 %tobool4, label %land.lhs.true5, label %if.end11

land.lhs.true5:                                   ; preds = %land.lhs.true
  %call = call zeroext i1 @qemu_loglevel_mask(i32 noundef 32768)
  br i1 %call, label %if.then, label %if.end11

if.then:                                          ; preds = %land.lhs.true5
  %2 = load i8, ptr @message_with_timestamp, align 1
  %tobool7 = trunc i8 %2 to i1
  br i1 %tobool7, label %if.then8, label %if.else

if.then8:                                         ; preds = %if.then
  %call9 = call i32 @gettimeofday(ptr noundef %_now, ptr noundef null) #14
  %call10 = call i32 @qemu_get_thread_id()
  %tv_sec = getelementptr inbounds %struct.timeval, ptr %_now, i32 0, i32 0
  %3 = load i64, ptr %tv_sec, align 8
  %tv_usec = getelementptr inbounds %struct.timeval, ptr %_now, i32 0, i32 1
  %4 = load i64, ptr %tv_usec, align 8
  %5 = load ptr, ptr %vdev.addr, align 8
  %6 = load i32, ptr %n.addr, align 4
  %7 = load ptr, ptr %vq.addr, align 8
  call void (ptr, ...) @qemu_log(ptr noundef @.str.100, i32 noundef %call10, i64 noundef %3, i64 noundef %4, ptr noundef %5, i32 noundef %6, ptr noundef %7)
  br label %if.end

if.else:                                          ; preds = %if.then
  %8 = load ptr, ptr %vdev.addr, align 8
  %9 = load i32, ptr %n.addr, align 4
  %10 = load ptr, ptr %vq.addr, align 8
  call void (ptr, ...) @qemu_log(ptr noundef @.str.101, ptr noundef %8, i32 noundef %9, ptr noundef %10)
  br label %if.end

if.end:                                           ; preds = %if.else, %if.then8
  br label %if.end11

if.end11:                                         ; preds = %if.end, %land.lhs.true5, %land.lhs.true, %entry
  ret void
}

; Function Attrs: nounwind sspstrong uwtable
define internal void @virtio_set_started(ptr noundef %vdev, i1 noundef zeroext %started) #0 {
entry:
  %vdev.addr = alloca ptr, align 8
  %started.addr = alloca i8, align 1
  store ptr %vdev, ptr %vdev.addr, align 8
  %frombool = zext i1 %started to i8
  store i8 %frombool, ptr %started.addr, align 1
  %0 = load i8, ptr %started.addr, align 1
  %tobool = trunc i8 %0 to i1
  br i1 %tobool, label %if.then, label %if.end

if.then:                                          ; preds = %entry
  %1 = load ptr, ptr %vdev.addr, align 8
  %start_on_kick = getelementptr inbounds %struct.VirtIODevice, ptr %1, i32 0, i32 22
  store i8 0, ptr %start_on_kick, align 8
  br label %if.end

if.end:                                           ; preds = %if.then, %entry
  %2 = load ptr, ptr %vdev.addr, align 8
  %use_started = getelementptr inbounds %struct.VirtIODevice, ptr %2, i32 0, i32 20
  %3 = load i8, ptr %use_started, align 2
  %tobool1 = trunc i8 %3 to i1
  br i1 %tobool1, label %if.then2, label %if.end6

if.then2:                                         ; preds = %if.end
  %4 = load i8, ptr %started.addr, align 1
  %tobool3 = trunc i8 %4 to i1
  %5 = load ptr, ptr %vdev.addr, align 8
  %started4 = getelementptr inbounds %struct.VirtIODevice, ptr %5, i32 0, i32 21
  %frombool5 = zext i1 %tobool3 to i8
  store i8 %frombool5, ptr %started4, align 1
  br label %if.end6

if.end6:                                          ; preds = %if.then2, %if.end
  ret void
}

; Function Attrs: nounwind sspstrong uwtable
define internal void @trace_virtio_queue_notify(ptr noundef %vdev, i32 noundef %n, ptr noundef %vq) #0 {
entry:
  %vdev.addr = alloca ptr, align 8
  %n.addr = alloca i32, align 4
  %vq.addr = alloca ptr, align 8
  store ptr %vdev, ptr %vdev.addr, align 8
  store i32 %n, ptr %n.addr, align 4
  store ptr %vq, ptr %vq.addr, align 8
  %0 = load ptr, ptr %vdev.addr, align 8
  %1 = load i32, ptr %n.addr, align 4
  %2 = load ptr, ptr %vq.addr, align 8
  call void @_nocheck__trace_virtio_queue_notify(ptr noundef %0, i32 noundef %1, ptr noundef %2)
  ret void
}

; Function Attrs: nounwind sspstrong uwtable
define dso_local void @virtio_queue_notify(ptr noundef %vdev, i32 noundef %n) #0 {
entry:
  %vdev.addr = alloca ptr, align 8
  %n.addr = alloca i32, align 4
  %vq = alloca ptr, align 8
  store ptr %vdev, ptr %vdev.addr, align 8
  store i32 %n, ptr %n.addr, align 4
  %0 = load ptr, ptr %vdev.addr, align 8
  %vq1 = getelementptr inbounds %struct.VirtIODevice, ptr %0, i32 0, i32 13
  %1 = load ptr, ptr %vq1, align 8
  %2 = load i32, ptr %n.addr, align 4
  %idxprom = sext i32 %2 to i64
  %arrayidx = getelementptr %struct.VirtQueue, ptr %1, i64 %idxprom
  store ptr %arrayidx, ptr %vq, align 8
  %3 = load ptr, ptr %vq, align 8
  %vring = getelementptr inbounds %struct.VirtQueue, ptr %3, i32 0, i32 0
  %desc = getelementptr inbounds %struct.VRing, ptr %vring, i32 0, i32 3
  %4 = load i64, ptr %desc, align 8
  %tobool = icmp ne i64 %4, 0
  br i1 %tobool, label %lor.rhs, label %lor.end

lor.rhs:                                          ; preds = %entry
  %5 = load ptr, ptr %vdev.addr, align 8
  %broken = getelementptr inbounds %struct.VirtIODevice, ptr %5, i32 0, i32 17
  %6 = load i8, ptr %broken, align 1
  %tobool2 = trunc i8 %6 to i1
  br label %lor.end

lor.end:                                          ; preds = %lor.rhs, %entry
  %7 = phi i1 [ true, %entry ], [ %tobool2, %lor.rhs ]
  %lnot = xor i1 %7, true
  %lnot3 = xor i1 %lnot, true
  %lnot.ext = zext i1 %lnot3 to i32
  %conv = sext i32 %lnot.ext to i64
  %tobool4 = icmp ne i64 %conv, 0
  br i1 %tobool4, label %if.then, label %if.end

if.then:                                          ; preds = %lor.end
  br label %if.end22

if.end:                                           ; preds = %lor.end
  %8 = load ptr, ptr %vdev.addr, align 8
  %9 = load ptr, ptr %vq, align 8
  %10 = load ptr, ptr %vdev.addr, align 8
  %vq5 = getelementptr inbounds %struct.VirtIODevice, ptr %10, i32 0, i32 13
  %11 = load ptr, ptr %vq5, align 8
  %sub.ptr.lhs.cast = ptrtoint ptr %9 to i64
  %sub.ptr.rhs.cast = ptrtoint ptr %11 to i64
  %sub.ptr.sub = sub i64 %sub.ptr.lhs.cast, %sub.ptr.rhs.cast
  %sub.ptr.div = sdiv exact i64 %sub.ptr.sub, 152
  %conv6 = trunc i64 %sub.ptr.div to i32
  %12 = load ptr, ptr %vq, align 8
  call void @trace_virtio_queue_notify(ptr noundef %8, i32 noundef %conv6, ptr noundef %12)
  %13 = load ptr, ptr %vq, align 8
  %host_notifier_enabled = getelementptr inbounds %struct.VirtQueue, ptr %13, i32 0, i32 18
  %14 = load i8, ptr %host_notifier_enabled, align 8
  %tobool7 = trunc i8 %14 to i1
  br i1 %tobool7, label %if.then8, label %if.else

if.then8:                                         ; preds = %if.end
  %15 = load ptr, ptr %vq, align 8
  %host_notifier = getelementptr inbounds %struct.VirtQueue, ptr %15, i32 0, i32 17
  %call = call i32 @event_notifier_set(ptr noundef %host_notifier)
  br label %if.end22

if.else:                                          ; preds = %if.end
  %16 = load ptr, ptr %vq, align 8
  %handle_output = getelementptr inbounds %struct.VirtQueue, ptr %16, i32 0, i32 14
  %17 = load ptr, ptr %handle_output, align 8
  %tobool9 = icmp ne ptr %17, null
  br i1 %tobool9, label %if.then10, label %if.end21

if.then10:                                        ; preds = %if.else
  %18 = load ptr, ptr %vq, align 8
  %handle_output11 = getelementptr inbounds %struct.VirtQueue, ptr %18, i32 0, i32 14
  %19 = load ptr, ptr %handle_output11, align 8
  %20 = load ptr, ptr %vdev.addr, align 8
  %21 = load ptr, ptr %vq, align 8
  call void %19(ptr noundef %20, ptr noundef %21)
  %22 = load ptr, ptr %vdev.addr, align 8
  %start_on_kick = getelementptr inbounds %struct.VirtIODevice, ptr %22, i32 0, i32 22
  %23 = load i8, ptr %start_on_kick, align 8
  %tobool12 = trunc i8 %23 to i1
  %lnot13 = xor i1 %tobool12, true
  %lnot15 = xor i1 %lnot13, true
  %lnot.ext16 = zext i1 %lnot15 to i32
  %conv17 = sext i32 %lnot.ext16 to i64
  %tobool18 = icmp ne i64 %conv17, 0
  br i1 %tobool18, label %if.then19, label %if.end20

if.then19:                                        ; preds = %if.then10
  %24 = load ptr, ptr %vdev.addr, align 8
  call void @virtio_set_started(ptr noundef %24, i1 noundef zeroext true)
  br label %if.end20

if.end20:                                         ; preds = %if.then19, %if.then10
  br label %if.end21

if.end21:                                         ; preds = %if.end20, %if.else
  br label %if.end22

if.end22:                                         ; preds = %if.end21, %if.then8, %if.then
  ret void
}