; Function Attrs: nounwind sspstrong uwtable
define dso_local void @virtio_queue_notify(ptr noundef %vdev, i32 noundef %n) local_unnamed_addr #0 {
entry:
  %_now.i.i = alloca %struct.timeval, align 8
  %vq1 = getelementptr inbounds nuw i8, ptr %vdev, i64 232
  %0 = load ptr, ptr %vq1, align 8
  %idxprom = sext i32 %n to i64
  %arrayidx = getelementptr %struct.VirtQueue, ptr %0, i64 %idxprom
  %desc = getelementptr inbounds nuw i8, ptr %arrayidx, i64 16
  %1 = load i64, ptr %desc, align 8
  %tobool.not = icmp eq i64 %1, 0
  br i1 %tobool.not, label %if.end22, label %lor.rhs

lor.rhs:                                          ; preds = %entry
  %broken = getelementptr inbounds nuw i8, ptr %vdev, i64 435
  %2 = load i8, ptr %broken, align 1
  %tobool2 = trunc i8 %2 to i1
  br i1 %tobool2, label %if.end22, label %if.end

if.end:                                           ; preds = %lor.rhs
  call void @llvm.lifetime.start.p0(i64 16, ptr nonnull %_now.i.i)
  %3 = load i32, ptr @trace_events_enabled_count, align 4
  %tobool.i.i = icmp ne i32 %3, 0
  %4 = load i16, ptr @_TRACE_VIRTIO_QUEUE_NOTIFY_DSTATE, align 2
  %tobool4.i.i = icmp ne i16 %4, 0
  %or.cond.i.i = select i1 %tobool.i.i, i1 %tobool4.i.i, i1 false
  br i1 %or.cond.i.i, label %land.lhs.true5.i.i, label %trace_virtio_queue_notify.exit

land.lhs.true5.i.i:                               ; preds = %if.end
  %5 = load i32, ptr @qemu_loglevel, align 4
  %and.i.i.i = and i32 %5, 32768
  %cmp.i.not.i.i = icmp eq i32 %and.i.i.i, 0
  br i1 %cmp.i.not.i.i, label %trace_virtio_queue_notify.exit, label %if.then.i.i

if.then.i.i:                                      ; preds = %land.lhs.true5.i.i
  %6 = load i8, ptr @message_with_timestamp, align 1
  %tobool7.i.i = trunc i8 %6 to i1
  br i1 %tobool7.i.i, label %if.then8.i.i, label %if.else.i.i

if.then8.i.i:                                     ; preds = %if.then.i.i
  %call9.i.i = call i32 @gettimeofday(ptr noundef nonnull %_now.i.i, ptr noundef null) #23
  %call10.i.i = tail call i32 @qemu_get_thread_id() #23
  %7 = load i64, ptr %_now.i.i, align 8
  %tv_usec.i.i = getelementptr inbounds nuw i8, ptr %_now.i.i, i64 8
  %8 = load i64, ptr %tv_usec.i.i, align 8
  tail call void (ptr, ...) @qemu_log(ptr noundef nonnull @.str.100, i32 noundef %call10.i.i, i64 noundef %7, i64 noundef %8, ptr noundef nonnull %vdev, i32 noundef %n, ptr noundef %arrayidx) #23
  br label %trace_virtio_queue_notify.exit

if.else.i.i:                                      ; preds = %if.then.i.i
  tail call void (ptr, ...) @qemu_log(ptr noundef nonnull @.str.101, ptr noundef nonnull %vdev, i32 noundef %n, ptr noundef %arrayidx) #23
  br label %trace_virtio_queue_notify.exit

trace_virtio_queue_notify.exit:                   ; preds = %if.end, %land.lhs.true5.i.i, %if.then8.i.i, %if.else.i.i
  call void @llvm.lifetime.end.p0(i64 16, ptr nonnull %_now.i.i)
  %host_notifier_enabled = getelementptr inbounds nuw i8, ptr %arrayidx, i64 128
  %9 = load i8, ptr %host_notifier_enabled, align 8
  %tobool7 = trunc i8 %9 to i1
  br i1 %tobool7, label %if.then8, label %if.else

if.then8:                                         ; preds = %trace_virtio_queue_notify.exit
  %host_notifier = getelementptr inbounds nuw i8, ptr %arrayidx, i64 116
  %call = tail call i32 @event_notifier_set(ptr noundef nonnull %host_notifier) #23
  br label %if.end22

if.else:                                          ; preds = %trace_virtio_queue_notify.exit
  %handle_output = getelementptr inbounds nuw i8, ptr %arrayidx, i64 88
  %10 = load ptr, ptr %handle_output, align 8
  %tobool9.not = icmp eq ptr %10, null
  br i1 %tobool9.not, label %if.end22, label %if.then10

if.then10:                                        ; preds = %if.else
  tail call void %10(ptr noundef nonnull %vdev, ptr noundef %arrayidx) #23
  %start_on_kick = getelementptr inbounds nuw i8, ptr %vdev, i64 440
  %11 = load i8, ptr %start_on_kick, align 8
  %tobool12 = trunc i8 %11 to i1
  br i1 %tobool12, label %if.then19, label %if.end22

if.then19:                                        ; preds = %if.then10
  store i8 0, ptr %start_on_kick, align 8
  %use_started.i = getelementptr inbounds nuw i8, ptr %vdev, i64 438
  %12 = load i8, ptr %use_started.i, align 2
  %tobool1.i = trunc i8 %12 to i1
  br i1 %tobool1.i, label %if.then2.i, label %if.end22

if.then2.i:                                       ; preds = %if.then19
  %started4.i = getelementptr inbounds nuw i8, ptr %vdev, i64 439
  store i8 1, ptr %started4.i, align 1
  br label %if.end22

if.end22:                                         ; preds = %if.then2.i, %if.then19, %entry, %if.else, %if.then10, %lor.rhs, %if.then8
  ret void
}